target datalayout = "e-m:e-p270:32:32-p271:32:32-p272:64:64-i64:64-i128:128-f80:128-n8:16:32:64-S128"
target triple = "x86_64-pc-linux-gnu"

%struct.Nm_Entry_t_ = type { i32, i32, ptr, ptr, ptr, [0 x i8] }

@Nm_ManCreateUniqueName.NameStr = internal global [1000 x i8] zeroinitializer, align 16
@.str.4 = private unnamed_addr constant [4 x i8] c"n%d\00", align 1
@.str.5 = private unnamed_addr constant [7 x i8] c"n%d_%d\00", align 1

; Function Attrs: nounwind uwtable
define ptr @Nm_ManCreateUniqueName(ptr noundef %0, i32 noundef %1) #0 {
  %3 = alloca ptr, align 8
  %4 = alloca ptr, align 8
  %5 = alloca i32, align 4
  %6 = alloca ptr, align 8
  %7 = alloca i32, align 4
  %8 = alloca i32, align 4
  store ptr %0, ptr %4, align 8, !tbaa !7
  store i32 %1, ptr %5, align 4, !tbaa !3
  call void @llvm.lifetime.start.p0(i64 8, ptr %6) #9
  call void @llvm.lifetime.start.p0(i64 4, ptr %7) #9
  %9 = load ptr, ptr %4, align 8, !tbaa !7
  %10 = load i32, ptr %5, align 4, !tbaa !3
  %11 = call ptr @Nm_ManTableLookupId(ptr noundef %9, i32 noundef %10)
  store ptr %11, ptr %6, align 8, !tbaa !25
  %12 = icmp ne ptr %11, null
  br i1 %12, label %13, label %17

13:                                               ; preds = %2
  %14 = load ptr, ptr %6, align 8, !tbaa !25
  %15 = getelementptr inbounds nuw %struct.Nm_Entry_t_, ptr %14, i32 0, i32 5
  %16 = getelementptr inbounds [0 x i8], ptr %15, i64 0, i64 0
  store ptr %16, ptr %3, align 8
  store i32 1, ptr %8, align 4
  br label %32

17:                                               ; preds = %2
  %18 = load i32, ptr %5, align 4, !tbaa !3
  %19 = call i32 (ptr, ptr, ...) @sprintf(ptr noundef @Nm_ManCreateUniqueName.NameStr, ptr noundef @.str.4, i32 noundef %18) #9
  store i32 1, ptr %7, align 4, !tbaa !3
  br label %20

20:                                               ; preds = %28, %17
  %21 = load ptr, ptr %4, align 8, !tbaa !7
  %22 = call ptr @Nm_ManTableLookupName(ptr noundef %21, ptr noundef @Nm_ManCreateUniqueName.NameStr, i32 noundef -1)
  %23 = icmp ne ptr %22, null
  br i1 %23, label %24, label %31

24:                                               ; preds = %20
  %25 = load i32, ptr %5, align 4, !tbaa !3
  %26 = load i32, ptr %7, align 4, !tbaa !3
  %27 = call i32 (ptr, ptr, ...) @sprintf(ptr noundef @Nm_ManCreateUniqueName.NameStr, ptr noundef @.str.5, i32 noundef %25, i32 noundef %26) #9
  br label %28

28:                                               ; preds = %24
  %29 = load i32, ptr %7, align 4, !tbaa !3
  %30 = add nsw i32 %29, 1
  store i32 %30, ptr %7, align 4, !tbaa !3
  br label %20, !llvm.loop !33

31:                                               ; preds = %20
  store ptr @Nm_ManCreateUniqueName.NameStr, ptr %3, align 8
  store i32 1, ptr %8, align 4
  br label %32

32:                                               ; preds = %31, %13
  call void @llvm.lifetime.end.p0(i64 4, ptr %7) #9
  call void @llvm.lifetime.end.p0(i64 8, ptr %6) #9
  %33 = load ptr, ptr %3, align 8
  ret ptr %33
}