; Function Attrs: nounwind uwtable
define nonnull ptr @Nm_ManCreateUniqueName(ptr noundef %0, i32 noundef %1) local_unnamed_addr #0 {
  %3 = tail call ptr @Nm_ManTableLookupId(ptr noundef %0, i32 noundef %1) #10
  %.not = icmp eq ptr %3, null
  br i1 %.not, label %6, label %4

4:                                                ; preds = %2
  %5 = getelementptr inbounds nuw i8, ptr %3, i64 32
  br label %.loopexit

6:                                                ; preds = %2
  %7 = tail call i32 (ptr, ptr, ...) @sprintf(ptr noundef nonnull dereferenceable(1) @Nm_ManCreateUniqueName.NameStr, ptr noundef nonnull dereferenceable(1) @.str.4, i32 noundef %1) #10
  %8 = tail call ptr @Nm_ManTableLookupName(ptr noundef %0, ptr noundef nonnull @Nm_ManCreateUniqueName.NameStr, i32 noundef -1) #10
  %.not1011 = icmp eq ptr %8, null
  br i1 %.not1011, label %.loopexit, label %.lr.ph

.lr.ph:                                           ; preds = %6, %.lr.ph
  %.012 = phi i32 [ %10, %.lr.ph ], [ 1, %6 ]
  %9 = tail call i32 (ptr, ptr, ...) @sprintf(ptr noundef nonnull dereferenceable(1) @Nm_ManCreateUniqueName.NameStr, ptr noundef nonnull dereferenceable(1) @.str.5, i32 noundef %1, i32 noundef %.012) #10
  %10 = add nuw nsw i32 %.012, 1
  %11 = tail call ptr @Nm_ManTableLookupName(ptr noundef %0, ptr noundef nonnull @Nm_ManCreateUniqueName.NameStr, i32 noundef -1) #10
  %.not10 = icmp eq ptr %11, null
  br i1 %.not10, label %.loopexit, label %.lr.ph, !llvm.loop !24

.loopexit:                                        ; preds = %.lr.ph, %6, %4
  %.08 = phi ptr [ %5, %4 ], [ @Nm_ManCreateUniqueName.NameStr, %6 ], [ @Nm_ManCreateUniqueName.NameStr, %.lr.ph ]
  ret ptr %.08
}